; Function Attrs: null_pointer_is_valid sspstrong uwtable
define hidden noundef i32 @dissect_ranap_Source_ToTarget_TransparentContainer_PDU(ptr noundef %0, ptr noundef %1, ptr noundef %2, ptr readnone captures(none) %3) #0 {
  %5 = alloca %struct._asn1_ctx_t, align 8
  call void @llvm.lifetime.start.p0(i64 208, ptr nonnull %5) #4
  call void @asn1_ctx_init(ptr noundef nonnull %5, i32 noundef 1, i1 noundef zeroext true, ptr noundef %1)
  %6 = load i32, ptr @hf_ranap_ranap_SourceRNC_ToTargetRNC_TransparentContainer_PDU, align 4
  store i32 61, ptr @ProtocolIE_ID, align 4
  %7 = load i32, ptr @ett_ranap_SourceRNC_ToTargetRNC_TransparentContainer, align 4
  %8 = call i32 @dissect_per_sequence(ptr noundef %0, i32 noundef 0, ptr noundef nonnull %5, ptr noundef %2, i32 noundef %6, i32 noundef %7, ptr noundef nonnull @SourceRNC_ToTargetRNC_TransparentContainer_sequence)
  call void @llvm.lifetime.end.p0(i64 208, ptr nonnull %5) #4
  ret i32 0
}